; Function Attrs: nounwind uwtable
define hidden void @Wayland_RestoreWindow(ptr noundef readonly captures(none) %0, ptr noundef readonly captures(none) %1) local_unnamed_addr #0 {
  %3 = getelementptr inbounds nuw i8, ptr %1, i64 392
  %4 = load ptr, ptr %3, align 8
  %5 = getelementptr inbounds nuw i8, ptr %4, i64 400
  %6 = load i8, ptr %5, align 8, !range !5, !noundef !6
  %7 = trunc nuw i8 %6 to i1
  br i1 %7, label %47, label %8

8:                                                ; preds = %2
  %9 = getelementptr inbounds nuw i8, ptr %1, i64 72
  %10 = load i64, ptr %9, align 8
  %11 = and i64 %10, 129
  %.not = icmp eq i64 %11, 0
  br i1 %.not, label %12, label %18

12:                                               ; preds = %8
  %13 = getelementptr inbounds nuw i8, ptr %4, i64 368
  %14 = load i32, ptr %13, align 8
  %.not12 = icmp eq i32 %14, 0
  br i1 %.not12, label %15, label %18

15:                                               ; preds = %12
  %16 = getelementptr inbounds nuw i8, ptr %4, i64 372
  %17 = load i32, ptr %16, align 4
  %.not13 = icmp eq i32 %17, 0
  br i1 %.not13, label %47, label %18

18:                                               ; preds = %15, %12, %8
  %19 = getelementptr inbounds nuw i8, ptr %4, i64 88
  %20 = load i32, ptr %19, align 8
  %21 = icmp eq i32 %20, 1
  br i1 %21, label %22, label %47

22:                                               ; preds = %18
  %23 = getelementptr inbounds nuw i8, ptr %4, i64 64
  %24 = load ptr, ptr %23, align 8
  %25 = icmp eq ptr %24, null
  br i1 %25, label %47, label %26

26:                                               ; preds = %22
  %27 = load ptr, ptr @WAYLAND_wl_proxy_marshal_flags, align 8
  %28 = load ptr, ptr @WAYLAND_wl_proxy_get_version, align 8
  %29 = tail call i32 %28(ptr noundef nonnull %24) #15
  %30 = tail call ptr (ptr, i32, ptr, i32, i32, ...) %27(ptr noundef nonnull %24, i32 noundef 10, ptr noundef null, i32 noundef %29, i32 noundef 0) #15
  %31 = getelementptr inbounds nuw i8, ptr %4, i64 372
  %32 = load i32, ptr %31, align 4
  %33 = add nsw i32 %32, 1
  store i32 %33, ptr %31, align 4
  %34 = getelementptr inbounds nuw i8, ptr %0, i64 1656
  %35 = load ptr, ptr %34, align 8
  %36 = getelementptr inbounds nuw i8, ptr %35, i64 8
  %37 = load ptr, ptr %36, align 8
  %38 = load ptr, ptr @WAYLAND_wl_proxy_marshal_flags, align 8
  %39 = load ptr, ptr @WAYLAND_wl_proxy_get_version, align 8
  %40 = tail call i32 %39(ptr noundef %37) #15
  %41 = tail call ptr (ptr, i32, ptr, i32, i32, ...) %38(ptr noundef %37, i32 noundef 0, ptr noundef nonnull @wl_callback_interface, i32 noundef %40, i32 noundef 0, ptr noundef null) #15
  %42 = load i32, ptr %1, align 8
  %43 = zext i32 %42 to i64
  %44 = inttoptr i64 %43 to ptr
  %45 = load ptr, ptr @WAYLAND_wl_proxy_add_listener, align 8
  %46 = tail call i32 %45(ptr noundef %41, ptr noundef nonnull @maximized_restored_deadline_listener, ptr noundef %44) #15
  br label %47

47:                                               ; preds = %18, %26, %22, %15, %2
  ret void
}